; Function Attrs: mustprogress uwtable
define noundef i64 @_ZNK6google8protobuf7Message24ComputeUnknownFieldsSizeEmPNS0_8internal10CachedSizeE(ptr nocapture noundef nonnull readonly align 8 dereferenceable(16) %this, i64 noundef %total_size, ptr nocapture noundef writeonly %cached_size) local_unnamed_addr #3 align 2 {
entry:
  %_internal_metadata_ = getelementptr inbounds i8, ptr %this, i64 8
  %0 = load i64, ptr %_internal_metadata_, align 8
  %and.i = and i64 %0, 1
  %tobool.i.not = icmp eq i64 %and.i, 0
  br i1 %tobool.i.not, label %if.else.i, label %if.then.i

if.then.i:                                        ; preds = %entry
  %and.i3 = and i64 %0, -2
  %1 = inttoptr i64 %and.i3 to ptr
  %unknown_fields.i = getelementptr inbounds i8, ptr %1, i64 8
  br label %_ZNK6google8protobuf8internal16InternalMetadata14unknown_fieldsINS0_15UnknownFieldSetEEERKT_PFS7_vE.exit

if.else.i:                                        ; preds = %entry
  %call3.i = tail call noundef nonnull align 8 dereferenceable(24) ptr @_ZN6google8protobuf15UnknownFieldSet16default_instanceEv()
  br label %_ZNK6google8protobuf8internal16InternalMetadata14unknown_fieldsINS0_15UnknownFieldSetEEERKT_PFS7_vE.exit

_ZNK6google8protobuf8internal16InternalMetadata14unknown_fieldsINS0_15UnknownFieldSetEEERKT_PFS7_vE.exit: ; preds = %if.else.i, %if.then.i
  %retval.i.0 = phi ptr [ %unknown_fields.i, %if.then.i ], [ %call3.i, %if.else.i ]
  %call2 = tail call noundef i64 @_ZN6google8protobuf8internal10WireFormat24ComputeUnknownFieldsSizeERKNS0_15UnknownFieldSetE(ptr noundef nonnull align 8 dereferenceable(24) %retval.i.0)
  %add = add i64 %call2, %total_size
  %conv.i = trunc i64 %add to i32
  store atomic i32 %conv.i, ptr %cached_size monotonic, align 4
  ret i64 %add
}